; Function Attrs: null_pointer_is_valid sspstrong uwtable
define internal i32 @dissect_dcom_Property_Guid(ptr noundef %0, i32 noundef %1, ptr noundef %2, ptr noundef %3, ptr noundef %4, ptr noundef %5) #0 {
  %7 = getelementptr inbounds nuw i8, ptr %4, i64 88
  %8 = load ptr, ptr %7, align 8
  %9 = getelementptr inbounds nuw i8, ptr %8, i64 200
  %10 = load i32, ptr %9, align 4
  %11 = icmp ult i32 %10, 10
  br i1 %11, label %12, label %18

12:                                               ; preds = %6
  %13 = load i32, ptr @hf_sysact_actpropclsid, align 4
  %14 = add nuw nsw i32 %10, 1
  store i32 %14, ptr %9, align 4
  %15 = zext nneg i32 %10 to i64
  %16 = getelementptr [10 x %struct._e_guid_t], ptr %8, i64 0, i64 %15
  %17 = tail call i32 @dissect_dcom_UUID(ptr noundef %0, i32 noundef %1, ptr noundef %2, ptr noundef %3, ptr noundef %4, ptr noundef %5, i32 noundef %13, ptr noundef %16)
  br label %20

18:                                               ; preds = %6
  tail call void @tvb_ensure_bytes_exist(ptr noundef %0, i32 noundef %1, i32 noundef 16)
  %19 = add i32 %1, 16
  br label %20

20:                                               ; preds = %18, %12
  %.0 = phi i32 [ %17, %12 ], [ %19, %18 ]
  ret i32 %.0
}